; Function Attrs: mustprogress uwtable
define void @_ZNK32pxrInternal_v0_24__pxrReserved__28PcpErrorPrimPermissionDenied8ToStringB5cxx11Ev(ptr dead_on_unwind noalias writable sret(%"class.std::__cxx11::basic_string") align 8 %0, ptr noundef nonnull align 8 dereferenceable(280) %1) unnamed_addr #0 align 2 personality ptr @__gxx_personality_v0 {
  %3 = alloca %"class.std::__cxx11::basic_ostringstream", align 8
  %4 = alloca %"class.std::__cxx11::basic_ostringstream", align 8
  %5 = alloca %"class.std::__cxx11::basic_string", align 8
  %6 = alloca %"class.std::__cxx11::basic_string", align 8
  %7 = getelementptr inbounds nuw i8, ptr %1, i64 104
  call void @llvm.lifetime.start.p0(i64 376, ptr nonnull %4)
  call void @_ZNSt7__cxx1119basic_ostringstreamIcSt11char_traitsIcESaIcEEC1Ev(ptr noundef nonnull align 8 dereferenceable(112) %4), !noalias !50
  %8 = invoke noundef nonnull align 8 dereferenceable(8) ptr @_ZN32pxrInternal_v0_24__pxrReserved__lsERSoRKNS_7PcpSiteE(ptr noundef nonnull align 8 dereferenceable(8) %4, ptr noundef nonnull align 8 dereferenceable(88) %7)
          to label %9 unwind label %10, !noalias !50

9:                                                ; preds = %2
  invoke void @_ZNKSt7__cxx1119basic_ostringstreamIcSt11char_traitsIcESaIcEE3strEv(ptr dead_on_unwind nonnull writable sret(%"class.std::__cxx11::basic_string") align 8 %5, ptr noundef nonnull align 8 dereferenceable(112) %4)
          to label %_ZN32pxrInternal_v0_24__pxrReserved__11TfStringifyINS_7PcpSiteEEENSt7__cxx1112basic_stringIcSt11char_traitsIcESaIcEEERKT_.exit unwind label %10

common.resume:                                    ; preds = %.body, %10
  %common.resume.op = phi { ptr, i32 } [ %11, %10 ], [ %.pn, %.body ]
  resume { ptr, i32 } %common.resume.op

10:                                               ; preds = %9, %2
  %11 = landingpad { ptr, i32 }
          cleanup
  call void @_ZNSt7__cxx1119basic_ostringstreamIcSt11char_traitsIcESaIcEED1Ev(ptr noundef nonnull align 8 dereferenceable(112) %4) #19
  br label %common.resume

_ZN32pxrInternal_v0_24__pxrReserved__11TfStringifyINS_7PcpSiteEEENSt7__cxx1112basic_stringIcSt11char_traitsIcESaIcEEERKT_.exit: ; preds = %9
  call void @_ZNSt7__cxx1119basic_ostringstreamIcSt11char_traitsIcESaIcEED1Ev(ptr noundef nonnull align 8 dereferenceable(112) %4) #19
  call void @llvm.lifetime.end.p0(i64 376, ptr nonnull %4)
  %12 = call noundef ptr @_ZNKSt7__cxx1112basic_stringIcSt11char_traitsIcESaIcEE5c_strEv(ptr noundef nonnull align 8 dereferenceable(32) %5) #19
  call void @llvm.lifetime.start.p0(i64 376, ptr nonnull %3)
  invoke void @_ZNSt7__cxx1119basic_ostringstreamIcSt11char_traitsIcESaIcEEC1Ev(ptr noundef nonnull align 8 dereferenceable(112) %3)
          to label %.noexc unwind label %21

.noexc:                                           ; preds = %_ZN32pxrInternal_v0_24__pxrReserved__11TfStringifyINS_7PcpSiteEEENSt7__cxx1112basic_stringIcSt11char_traitsIcESaIcEEERKT_.exit
  %13 = getelementptr inbounds nuw i8, ptr %1, i64 192
  %14 = invoke noundef nonnull align 8 dereferenceable(8) ptr @_ZN32pxrInternal_v0_24__pxrReserved__lsERSoRKNS_7PcpSiteE(ptr noundef nonnull align 8 dereferenceable(8) %3, ptr noundef nonnull align 8 dereferenceable(88) %13)
          to label %15 unwind label %16, !noalias !53

15:                                               ; preds = %.noexc
  invoke void @_ZNKSt7__cxx1119basic_ostringstreamIcSt11char_traitsIcESaIcEE3strEv(ptr dead_on_unwind nonnull writable sret(%"class.std::__cxx11::basic_string") align 8 %6, ptr noundef nonnull align 8 dereferenceable(112) %3)
          to label %18 unwind label %16

16:                                               ; preds = %15, %.noexc
  %17 = landingpad { ptr, i32 }
          cleanup
  call void @_ZNSt7__cxx1119basic_ostringstreamIcSt11char_traitsIcESaIcEED1Ev(ptr noundef nonnull align 8 dereferenceable(112) %3) #19
  br label %.body

18:                                               ; preds = %15
  call void @_ZNSt7__cxx1119basic_ostringstreamIcSt11char_traitsIcESaIcEED1Ev(ptr noundef nonnull align 8 dereferenceable(112) %3) #19
  call void @llvm.lifetime.end.p0(i64 376, ptr nonnull %3)
  %19 = call noundef ptr @_ZNKSt7__cxx1112basic_stringIcSt11char_traitsIcESaIcEE5c_strEv(ptr noundef nonnull align 8 dereferenceable(32) %6) #19
  invoke void (ptr, ptr, ...) @_ZN32pxrInternal_v0_24__pxrReserved__14TfStringPrintfB5cxx11EPKcz(ptr dead_on_unwind writable sret(%"class.std::__cxx11::basic_string") align 8 %0, ptr noundef nonnull @.str.52, ptr noundef %12, ptr noundef %19)
          to label %20 unwind label %23

20:                                               ; preds = %18
  call void @_ZNSt7__cxx1112basic_stringIcSt11char_traitsIcESaIcEED1Ev(ptr noundef nonnull align 8 dereferenceable(32) %6) #19
  call void @_ZNSt7__cxx1112basic_stringIcSt11char_traitsIcESaIcEED1Ev(ptr noundef nonnull align 8 dereferenceable(32) %5) #19
  ret void

21:                                               ; preds = %_ZN32pxrInternal_v0_24__pxrReserved__11TfStringifyINS_7PcpSiteEEENSt7__cxx1112basic_stringIcSt11char_traitsIcESaIcEEERKT_.exit
  %22 = landingpad { ptr, i32 }
          cleanup
  br label %.body

23:                                               ; preds = %18
  %24 = landingpad { ptr, i32 }
          cleanup
  call void @_ZNSt7__cxx1112basic_stringIcSt11char_traitsIcESaIcEED1Ev(ptr noundef nonnull align 8 dereferenceable(32) %6) #19
  br label %.body

.body:                                            ; preds = %21, %16, %23
  %.pn = phi { ptr, i32 } [ %24, %23 ], [ %22, %21 ], [ %17, %16 ]
  call void @_ZNSt7__cxx1112basic_stringIcSt11char_traitsIcESaIcEED1Ev(ptr noundef nonnull align 8 dereferenceable(32) %5) #19
  br label %common.resume
}